target datalayout = "e-m:e-p270:32:32-p271:32:32-p272:64:64-i64:64-i128:128-f80:128-n8:16:32:64-S128"
target triple = "x86_64-pc-linux-gnu"

%struct.channel_name = type { ptr, ptr }

@.str.3 = private unnamed_addr constant [4 x i8] c"UNK\00", align 1
@.str.4 = private unnamed_addr constant [5 x i8] c"UNSD\00", align 1
@.str.11 = private unnamed_addr constant [5 x i8] c"AMBI\00", align 1
@.str.12 = private unnamed_addr constant [4 x i8] c"USR\00", align 1

; Function Attrs: nounwind uwtable
define i32 @av_channel_from_string(ptr noundef %0) #0 {
  %2 = alloca i32, align 4
  %3 = alloca ptr, align 8
  %4 = alloca i32, align 4
  %5 = alloca ptr, align 8
  %6 = alloca i32, align 4
  %7 = alloca i32, align 4
  %8 = alloca ptr, align 8
  store ptr %0, ptr %3, align 8, !tbaa !14
  call void @llvm.lifetime.start.p0(i64 4, ptr %4) #11
  call void @llvm.lifetime.start.p0(i64 8, ptr %5) #11
  %9 = load ptr, ptr %3, align 8, !tbaa !14
  store ptr %9, ptr %5, align 8, !tbaa !14
  call void @llvm.lifetime.start.p0(i64 4, ptr %6) #11
  store i32 -1, ptr %6, align 4, !tbaa !9
  %10 = load ptr, ptr %3, align 8, !tbaa !14
  %11 = call i32 @strncmp(ptr noundef %10, ptr noundef @.str.11, i64 noundef 4) #12
  %12 = icmp ne i32 %11, 0
  br i1 %12, label %27, label %13

13:                                               ; preds = %1
  %14 = load ptr, ptr %3, align 8, !tbaa !14
  %15 = getelementptr inbounds i8, ptr %14, i64 4
  %16 = call i64 @strtol(ptr noundef %15, ptr noundef null, i32 noundef 0) #11
  %17 = trunc i64 %16 to i32
  store i32 %17, ptr %4, align 4, !tbaa !9
  %18 = load i32, ptr %4, align 4, !tbaa !9
  %19 = icmp slt i32 %18, 0
  br i1 %19, label %23, label %20

20:                                               ; preds = %13
  %21 = load i32, ptr %4, align 4, !tbaa !9
  %22 = icmp sgt i32 %21, 1023
  br i1 %22, label %23, label %24

23:                                               ; preds = %20, %13
  store i32 -1, ptr %2, align 4
  store i32 1, ptr %7, align 4
  br label %84

24:                                               ; preds = %20
  %25 = load i32, ptr %4, align 4, !tbaa !9
  %26 = add nsw i32 1024, %25
  store i32 %26, ptr %2, align 4
  store i32 1, ptr %7, align 4
  br label %84

27:                                               ; preds = %1
  store i32 0, ptr %4, align 4, !tbaa !9
  br label %28

28:                                               ; preds = %51, %27
  %29 = load i32, ptr %4, align 4, !tbaa !9
  %30 = sext i32 %29 to i64
  %31 = icmp ult i64 %30, 63
  br i1 %31, label %32, label %54

32:                                               ; preds = %28
  %33 = load i32, ptr %4, align 4, !tbaa !9
  %34 = sext i32 %33 to i64
  %35 = getelementptr inbounds [63 x %struct.channel_name], ptr @channel_names, i64 0, i64 %34
  %36 = getelementptr inbounds nuw %struct.channel_name, ptr %35, i32 0, i32 0
  %37 = load ptr, ptr %36, align 16, !tbaa !11
  %38 = icmp ne ptr %37, null
  br i1 %38, label %39, label %50

39:                                               ; preds = %32
  %40 = load ptr, ptr %3, align 8, !tbaa !14
  %41 = load i32, ptr %4, align 4, !tbaa !9
  %42 = sext i32 %41 to i64
  %43 = getelementptr inbounds [63 x %struct.channel_name], ptr @channel_names, i64 0, i64 %42
  %44 = getelementptr inbounds nuw %struct.channel_name, ptr %43, i32 0, i32 0
  %45 = load ptr, ptr %44, align 16, !tbaa !11
  %46 = call i32 @strcmp(ptr noundef %40, ptr noundef %45) #12
  %47 = icmp ne i32 %46, 0
  br i1 %47, label %50, label %48

48:                                               ; preds = %39
  %49 = load i32, ptr %4, align 4, !tbaa !9
  store i32 %49, ptr %2, align 4
  store i32 1, ptr %7, align 4
  br label %84

50:                                               ; preds = %39, %32
  br label %51

51:                                               ; preds = %50
  %52 = load i32, ptr %4, align 4, !tbaa !9
  %53 = add nsw i32 %52, 1
  store i32 %53, ptr %4, align 4, !tbaa !9
  br label %28, !llvm.loop !20

54:                                               ; preds = %28
  %55 = load ptr, ptr %3, align 8, !tbaa !14
  %56 = call i32 @strcmp(ptr noundef %55, ptr noundef @.str.3) #12
  %57 = icmp ne i32 %56, 0
  br i1 %57, label %59, label %58

58:                                               ; preds = %54
  store i32 768, ptr %2, align 4
  store i32 1, ptr %7, align 4
  br label %84

59:                                               ; preds = %54
  %60 = load ptr, ptr %3, align 8, !tbaa !14
  %61 = call i32 @strcmp(ptr noundef %60, ptr noundef @.str.4) #12
  %62 = icmp ne i32 %61, 0
  br i1 %62, label %64, label %63

63:                                               ; preds = %59
  store i32 512, ptr %2, align 4
  store i32 1, ptr %7, align 4
  br label %84

64:                                               ; preds = %59
  %65 = load ptr, ptr %3, align 8, !tbaa !14
  %66 = call i32 @strncmp(ptr noundef %65, ptr noundef @.str.12, i64 noundef 3) #12
  %67 = icmp ne i32 %66, 0
  br i1 %67, label %74, label %68

68:                                               ; preds = %64
  call void @llvm.lifetime.start.p0(i64 8, ptr %8) #11
  %69 = load ptr, ptr %3, align 8, !tbaa !14
  %70 = getelementptr inbounds i8, ptr %69, i64 3
  store ptr %70, ptr %8, align 8, !tbaa !14
  %71 = load ptr, ptr %8, align 8, !tbaa !14
  %72 = call i64 @strtol(ptr noundef %71, ptr noundef %5, i32 noundef 0) #11
  %73 = trunc i64 %72 to i32
  store i32 %73, ptr %6, align 4, !tbaa !9
  call void @llvm.lifetime.end.p0(i64 8, ptr %8) #11
  br label %74

74:                                               ; preds = %68, %64
  %75 = load i32, ptr %6, align 4, !tbaa !9
  %76 = icmp sge i32 %75, 0
  br i1 %76, label %77, label %83

77:                                               ; preds = %74
  %78 = load ptr, ptr %5, align 8, !tbaa !14
  %79 = load i8, ptr %78, align 1, !tbaa !22
  %80 = icmp ne i8 %79, 0
  br i1 %80, label %83, label %81

81:                                               ; preds = %77
  %82 = load i32, ptr %6, align 4, !tbaa !9
  store i32 %82, ptr %2, align 4
  store i32 1, ptr %7, align 4
  br label %84

83:                                               ; preds = %77, %74
  store i32 -1, ptr %2, align 4
  store i32 1, ptr %7, align 4
  br label %84

84:                                               ; preds = %83, %81, %63, %58, %48, %24, %23
  call void @llvm.lifetime.end.p0(i64 4, ptr %6) #11
  call void @llvm.lifetime.end.p0(i64 8, ptr %5) #11
  call void @llvm.lifetime.end.p0(i64 4, ptr %4) #11
  %85 = load i32, ptr %2, align 4
  ret i32 %85
}