; Function Attrs: nofree norecurse nounwind uwtable
define i32 @av_channel_from_string(ptr noundef %0) local_unnamed_addr #3 {
  %2 = alloca ptr, align 8
  call void @llvm.lifetime.start.p0(i64 8, ptr nonnull %2) #16
  store ptr %0, ptr %2, align 8, !tbaa !14
  %3 = tail call i32 @strncmp(ptr noundef nonnull dereferenceable(1) %0, ptr noundef nonnull dereferenceable(5) @.str.11, i64 noundef 4) #17
  %.not = icmp eq i32 %3, 0
  br i1 %.not, label %4, label %.preheader

4:                                                ; preds = %1
  %5 = getelementptr inbounds nuw i8, ptr %0, i64 4
  %6 = tail call i64 @strtol(ptr noundef nonnull captures(none) %5, ptr noundef null, i32 noundef 0) #16
  %7 = trunc i64 %6 to i32
  %or.cond = icmp ugt i32 %7, 1023
  %8 = or disjoint i32 %7, 1024
  %spec.select = select i1 %or.cond, i32 -1, i32 %8
  br label %.loopexit

.preheader:                                       ; preds = %1, %13
  %indvars.iv = phi i64 [ %indvars.iv.next, %13 ], [ 0, %1 ]
  %9 = getelementptr inbounds nuw [63 x %struct.channel_name], ptr @channel_names, i64 0, i64 %indvars.iv
  %10 = load ptr, ptr %9, align 16, !tbaa !4
  %.not29 = icmp eq ptr %10, null
  br i1 %.not29, label %13, label %11

11:                                               ; preds = %.preheader
  %12 = tail call i32 @strcmp(ptr noundef nonnull dereferenceable(1) %0, ptr noundef nonnull dereferenceable(1) %10) #17
  %.not30 = icmp eq i32 %12, 0
  br i1 %.not30, label %.loopexit.loopexit, label %13

13:                                               ; preds = %.preheader, %11
  %indvars.iv.next = add nuw nsw i64 %indvars.iv, 1
  %exitcond.not = icmp eq i64 %indvars.iv.next, 63
  br i1 %exitcond.not, label %14, label %.preheader, !llvm.loop !15

14:                                               ; preds = %13
  %15 = tail call i32 @strcmp(ptr noundef nonnull dereferenceable(1) %0, ptr noundef nonnull dereferenceable(4) @.str.3) #17
  %.not25 = icmp eq i32 %15, 0
  br i1 %.not25, label %.loopexit, label %16

16:                                               ; preds = %14
  %17 = tail call i32 @strcmp(ptr noundef nonnull dereferenceable(1) %0, ptr noundef nonnull dereferenceable(5) @.str.4) #17
  %.not26 = icmp eq i32 %17, 0
  br i1 %.not26, label %.loopexit, label %sub_0

sub_0:                                            ; preds = %16
  %18 = load i8, ptr %0, align 1
  %.not34 = icmp eq i8 %18, 85
  br i1 %.not34, label %sub_1, label %.thread

sub_1:                                            ; preds = %sub_0
  %19 = getelementptr inbounds nuw i8, ptr %0, i64 1
  %20 = load i8, ptr %19, align 1
  %.not35 = icmp eq i8 %20, 83
  br i1 %.not35, label %.tail, label %.thread

.tail:                                            ; preds = %sub_1
  %21 = getelementptr inbounds nuw i8, ptr %0, i64 2
  %22 = load i8, ptr %21, align 1
  %23 = icmp eq i8 %22, 82
  br i1 %23, label %24, label %.thread

24:                                               ; preds = %.tail
  %25 = getelementptr inbounds nuw i8, ptr %0, i64 3
  %26 = call i64 @strtol(ptr noundef nonnull %25, ptr noundef nonnull %2, i32 noundef 0) #16
  %27 = trunc i64 %26 to i32
  %28 = icmp sgt i32 %27, -1
  br i1 %28, label %29, label %.thread

29:                                               ; preds = %24
  %30 = load ptr, ptr %2, align 8, !tbaa !14
  %31 = load i8, ptr %30, align 1, !tbaa !17
  %.not28 = icmp eq i8 %31, 0
  br i1 %.not28, label %.loopexit, label %.thread

.thread:                                          ; preds = %sub_1, %sub_0, %.tail, %29, %24
  br label %.loopexit

.loopexit.loopexit:                               ; preds = %11
  %32 = trunc nuw nsw i64 %indvars.iv to i32
  br label %.loopexit

.loopexit:                                        ; preds = %.loopexit.loopexit, %4, %29, %16, %14, %.thread
  %.0 = phi i32 [ -1, %.thread ], [ 768, %14 ], [ 512, %16 ], [ %27, %29 ], [ %spec.select, %4 ], [ %32, %.loopexit.loopexit ]
  call void @llvm.lifetime.end.p0(i64 8, ptr nonnull %2) #16
  ret i32 %.0
}